target datalayout = "e-m:e-p270:32:32-p271:32:32-p272:64:64-i64:64-i128:128-f80:128-n8:16:32:64-S128"
target triple = "x86_64-pc-linux-gnu"

%struct.mbedtls_ssl_ticket_context = type { [2 x %struct.mbedtls_ssl_ticket_key], i8, i32, ptr, ptr }
%struct.mbedtls_ssl_ticket_key = type { [4 x i8], i64, i32, %struct.mbedtls_cipher_context_t }
%struct.mbedtls_cipher_context_t = type { ptr, i32, i32, ptr, ptr, [16 x i8], i64, [16 x i8], i64, ptr, ptr }

; Function Attrs: alwaysinline nounwind uwtable
define internal void @mbedtls_put_unaligned_uint16(ptr noundef %0, i16 noundef zeroext %1) #7 {
  %3 = alloca ptr, align 8
  %4 = alloca i16, align 2
  store ptr %0, ptr %3, align 8, !tbaa !29
  store i16 %1, ptr %4, align 2, !tbaa !39
  %5 = load ptr, ptr %3, align 8, !tbaa !29
  call void @llvm.memcpy.p0.p0.i64(ptr align 1 %5, ptr align 2 %4, i64 2, i1 false)
  ret void
}

; Function Attrs: inlinehint nounwind uwtable
define internal i32 @mbedtls_ssl_chk_buf_ptr(ptr noundef %0, ptr noundef %1, i64 noundef %2) #3 {
  %4 = alloca ptr, align 8
  %5 = alloca ptr, align 8
  %6 = alloca i64, align 8
  store ptr %0, ptr %4, align 8, !tbaa !8
  store ptr %1, ptr %5, align 8, !tbaa !8
  store i64 %2, ptr %6, align 8, !tbaa !10
  %7 = load ptr, ptr %4, align 8, !tbaa !8
  %8 = load ptr, ptr %5, align 8, !tbaa !8
  %9 = icmp ugt ptr %7, %8
  br i1 %9, label %18, label %10

10:                                               ; preds = %3
  %11 = load i64, ptr %6, align 8, !tbaa !10
  %12 = load ptr, ptr %5, align 8, !tbaa !8
  %13 = load ptr, ptr %4, align 8, !tbaa !8
  %14 = ptrtoint ptr %12 to i64
  %15 = ptrtoint ptr %13 to i64
  %16 = sub i64 %14, %15
  %17 = icmp ugt i64 %11, %16
  br label %18

18:                                               ; preds = %10, %3
  %19 = phi i1 [ true, %3 ], [ %17, %10 ]
  %20 = zext i1 %19 to i32
  ret i32 %20
}

; Function Attrs: nounwind uwtable
define hidden i32 @mbedtls_ssl_ticket_write(ptr noundef %0, ptr noundef %1, ptr noundef %2, ptr noundef %3, ptr noundef %4, ptr noundef %5) #0 {
  %7 = alloca i32, align 4
  %8 = alloca ptr, align 8
  %9 = alloca ptr, align 8
  %10 = alloca ptr, align 8
  %11 = alloca ptr, align 8
  %12 = alloca ptr, align 8
  %13 = alloca ptr, align 8
  %14 = alloca i32, align 4
  %15 = alloca ptr, align 8
  %16 = alloca ptr, align 8
  %17 = alloca ptr, align 8
  %18 = alloca ptr, align 8
  %19 = alloca ptr, align 8
  %20 = alloca ptr, align 8
  %21 = alloca i64, align 8
  %22 = alloca i64, align 8
  %23 = alloca i32, align 4
  store ptr %0, ptr %8, align 8, !tbaa !29
  store ptr %1, ptr %9, align 8, !tbaa !33
  store ptr %2, ptr %10, align 8, !tbaa !8
  store ptr %3, ptr %11, align 8, !tbaa !8
  store ptr %4, ptr %12, align 8, !tbaa !35
  store ptr %5, ptr %13, align 8, !tbaa !37
  call void @llvm.lifetime.start.p0(i64 4, ptr %14) #10
  store i32 -110, ptr %14, align 4, !tbaa !12
  call void @llvm.lifetime.start.p0(i64 8, ptr %15) #10
  %24 = load ptr, ptr %8, align 8, !tbaa !29
  store ptr %24, ptr %15, align 8, !tbaa !3
  call void @llvm.lifetime.start.p0(i64 8, ptr %16) #10
  call void @llvm.lifetime.start.p0(i64 8, ptr %17) #10
  %25 = load ptr, ptr %10, align 8, !tbaa !8
  store ptr %25, ptr %17, align 8, !tbaa !8
  call void @llvm.lifetime.start.p0(i64 8, ptr %18) #10
  %26 = load ptr, ptr %10, align 8, !tbaa !8
  %27 = getelementptr inbounds i8, ptr %26, i64 4
  store ptr %27, ptr %18, align 8, !tbaa !8
  call void @llvm.lifetime.start.p0(i64 8, ptr %19) #10
  %28 = load ptr, ptr %18, align 8, !tbaa !8
  %29 = getelementptr inbounds i8, ptr %28, i64 12
  store ptr %29, ptr %19, align 8, !tbaa !8
  call void @llvm.lifetime.start.p0(i64 8, ptr %20) #10
  %30 = load ptr, ptr %19, align 8, !tbaa !8
  %31 = getelementptr inbounds i8, ptr %30, i64 2
  store ptr %31, ptr %20, align 8, !tbaa !8
  call void @llvm.lifetime.start.p0(i64 8, ptr %21) #10
  call void @llvm.lifetime.start.p0(i64 8, ptr %22) #10
  %32 = load ptr, ptr %12, align 8, !tbaa !35
  store i64 0, ptr %32, align 8, !tbaa !10
  %33 = load ptr, ptr %15, align 8, !tbaa !3
  %34 = icmp eq ptr %33, null
  br i1 %34, label %40, label %35

35:                                               ; preds = %6
  %36 = load ptr, ptr %15, align 8, !tbaa !3
  %37 = getelementptr inbounds nuw %struct.mbedtls_ssl_ticket_context, ptr %36, i32 0, i32 3
  %38 = load ptr, ptr %37, align 8, !tbaa !31
  %39 = icmp eq ptr %38, null
  br i1 %39, label %40, label %41

40:                                               ; preds = %35, %6
  store i32 -28928, ptr %7, align 4
  store i32 1, ptr %23, align 4
  br label %129

41:                                               ; preds = %35
  br label %42

42:                                               ; preds = %41
  %43 = load ptr, ptr %10, align 8, !tbaa !8
  %44 = load ptr, ptr %11, align 8, !tbaa !8
  %45 = call i32 @mbedtls_ssl_chk_buf_ptr(ptr noundef %43, ptr noundef %44, i64 noundef 34)
  %46 = icmp ne i32 %45, 0
  br i1 %46, label %47, label %48

47:                                               ; preds = %42
  store i32 -27136, ptr %7, align 4
  store i32 1, ptr %23, align 4
  br label %129

48:                                               ; preds = %42
  br label %49

49:                                               ; preds = %48
  br label %50

50:                                               ; preds = %49
  %51 = load ptr, ptr %15, align 8, !tbaa !3
  %52 = call i32 @ssl_ticket_update_keys(ptr noundef %51)
  store i32 %52, ptr %14, align 4, !tbaa !12
  %53 = icmp ne i32 %52, 0
  br i1 %53, label %54, label %55

54:                                               ; preds = %50
  br label %127

55:                                               ; preds = %50
  %56 = load ptr, ptr %15, align 8, !tbaa !3
  %57 = getelementptr inbounds nuw %struct.mbedtls_ssl_ticket_context, ptr %56, i32 0, i32 0
  %58 = load ptr, ptr %15, align 8, !tbaa !3
  %59 = getelementptr inbounds nuw %struct.mbedtls_ssl_ticket_context, ptr %58, i32 0, i32 1
  %60 = load i8, ptr %59, align 8, !tbaa !14
  %61 = zext i8 %60 to i64
  %62 = getelementptr inbounds nuw [2 x %struct.mbedtls_ssl_ticket_key], ptr %57, i64 0, i64 %61
  store ptr %62, ptr %16, align 8, !tbaa !17
  %63 = load ptr, ptr %16, align 8, !tbaa !17
  %64 = getelementptr inbounds nuw %struct.mbedtls_ssl_ticket_key, ptr %63, i32 0, i32 2
  %65 = load i32, ptr %64, align 8, !tbaa !25
  %66 = load ptr, ptr %13, align 8, !tbaa !37
  store i32 %65, ptr %66, align 4, !tbaa !12
  %67 = load ptr, ptr %17, align 8, !tbaa !8
  %68 = load ptr, ptr %16, align 8, !tbaa !17
  %69 = getelementptr inbounds nuw %struct.mbedtls_ssl_ticket_key, ptr %68, i32 0, i32 0
  %70 = getelementptr inbounds [4 x i8], ptr %69, i64 0, i64 0
  call void @llvm.memcpy.p0.p0.i64(ptr align 1 %67, ptr align 8 %70, i64 4, i1 false)
  %71 = load ptr, ptr %15, align 8, !tbaa !3
  %72 = getelementptr inbounds nuw %struct.mbedtls_ssl_ticket_context, ptr %71, i32 0, i32 3
  %73 = load ptr, ptr %72, align 8, !tbaa !31
  %74 = load ptr, ptr %15, align 8, !tbaa !3
  %75 = getelementptr inbounds nuw %struct.mbedtls_ssl_ticket_context, ptr %74, i32 0, i32 4
  %76 = load ptr, ptr %75, align 8, !tbaa !32
  %77 = load ptr, ptr %18, align 8, !tbaa !8
  %78 = call i32 %73(ptr noundef %76, ptr noundef %77, i64 noundef 12)
  store i32 %78, ptr %14, align 4, !tbaa !12
  %79 = icmp ne i32 %78, 0
  br i1 %79, label %80, label %81

80:                                               ; preds = %55
  br label %127

81:                                               ; preds = %55
  %82 = load ptr, ptr %9, align 8, !tbaa !33
  %83 = load ptr, ptr %20, align 8, !tbaa !8
  %84 = load ptr, ptr %11, align 8, !tbaa !8
  %85 = load ptr, ptr %20, align 8, !tbaa !8
  %86 = ptrtoint ptr %84 to i64
  %87 = ptrtoint ptr %85 to i64
  %88 = sub i64 %86, %87
  %89 = call i32 @mbedtls_ssl_session_save(ptr noundef %82, ptr noundef %83, i64 noundef %88, ptr noundef %21)
  store i32 %89, ptr %14, align 4, !tbaa !12
  %90 = icmp ne i32 %89, 0
  br i1 %90, label %94, label %91

91:                                               ; preds = %81
  %92 = load i64, ptr %21, align 8, !tbaa !10
  %93 = icmp ugt i64 %92, 65535
  br i1 %93, label %94, label %95

94:                                               ; preds = %91, %81
  br label %127

95:                                               ; preds = %91
  %96 = load ptr, ptr %19, align 8, !tbaa !8
  %97 = getelementptr inbounds i8, ptr %96, i64 0
  %98 = load i64, ptr %21, align 8, !tbaa !10
  %99 = trunc i64 %98 to i16
  %100 = call i16 @llvm.bswap.i16(i16 %99)
  call void @mbedtls_put_unaligned_uint16(ptr noundef %97, i16 noundef zeroext %100)
  %101 = load ptr, ptr %16, align 8, !tbaa !17
  %102 = getelementptr inbounds nuw %struct.mbedtls_ssl_ticket_key, ptr %101, i32 0, i32 3
  %103 = load ptr, ptr %18, align 8, !tbaa !8
  %104 = load ptr, ptr %17, align 8, !tbaa !8
  %105 = load ptr, ptr %20, align 8, !tbaa !8
  %106 = load i64, ptr %21, align 8, !tbaa !10
  %107 = load ptr, ptr %20, align 8, !tbaa !8
  %108 = load ptr, ptr %11, align 8, !tbaa !8
  %109 = load ptr, ptr %20, align 8, !tbaa !8
  %110 = ptrtoint ptr %108 to i64
  %111 = ptrtoint ptr %109 to i64
  %112 = sub i64 %110, %111
  %113 = call i32 @mbedtls_cipher_auth_encrypt_ext(ptr noundef %102, ptr noundef %103, i64 noundef 12, ptr noundef %104, i64 noundef 18, ptr noundef %105, i64 noundef %106, ptr noundef %107, i64 noundef %112, ptr noundef %22, i64 noundef 16)
  store i32 %113, ptr %14, align 4, !tbaa !12
  %114 = icmp ne i32 %113, 0
  br i1 %114, label %115, label %116

115:                                              ; preds = %95
  br label %127

116:                                              ; preds = %95
  %117 = load i64, ptr %22, align 8, !tbaa !10
  %118 = load i64, ptr %21, align 8, !tbaa !10
  %119 = add i64 %118, 16
  %120 = icmp ne i64 %117, %119
  br i1 %120, label %121, label %122

121:                                              ; preds = %116
  store i32 -27648, ptr %14, align 4, !tbaa !12
  br label %127

122:                                              ; preds = %116
  %123 = load i64, ptr %22, align 8, !tbaa !10
  %124 = add i64 34, %123
  %125 = sub i64 %124, 16
  %126 = load ptr, ptr %12, align 8, !tbaa !35
  store i64 %125, ptr %126, align 8, !tbaa !10
  br label %127

127:                                              ; preds = %122, %121, %115, %94, %80, %54
  %128 = load i32, ptr %14, align 4, !tbaa !12
  store i32 %128, ptr %7, align 4
  store i32 1, ptr %23, align 4
  br label %129

129:                                              ; preds = %127, %47, %40
  call void @llvm.lifetime.end.p0(i64 8, ptr %22) #10
  call void @llvm.lifetime.end.p0(i64 8, ptr %21) #10
  call void @llvm.lifetime.end.p0(i64 8, ptr %20) #10
  call void @llvm.lifetime.end.p0(i64 8, ptr %19) #10
  call void @llvm.lifetime.end.p0(i64 8, ptr %18) #10
  call void @llvm.lifetime.end.p0(i64 8, ptr %17) #10
  call void @llvm.lifetime.end.p0(i64 8, ptr %16) #10
  call void @llvm.lifetime.end.p0(i64 8, ptr %15) #10
  call void @llvm.lifetime.end.p0(i64 4, ptr %14) #10
  %130 = load i32, ptr %7, align 4
  ret i32 %130
}