; Function Attrs: nounwind uwtable
define hidden i32 @mbedtls_ssl_ticket_write(ptr noundef %0, ptr noundef %1, ptr noundef %2, ptr noundef %3, ptr noundef writeonly captures(none) initializes((0, 8)) %4, ptr noundef writeonly captures(none) %5) local_unnamed_addr #2 {
  %7 = alloca i64, align 8
  %8 = alloca i64, align 8
  %9 = getelementptr inbounds nuw i8, ptr %2, i64 4
  %10 = getelementptr inbounds nuw i8, ptr %2, i64 16
  %11 = getelementptr inbounds nuw i8, ptr %2, i64 18
  call void @llvm.lifetime.start.p0(i64 8, ptr nonnull %7) #8
  call void @llvm.lifetime.start.p0(i64 8, ptr nonnull %8) #8
  store i64 0, ptr %4, align 8, !tbaa !20
  %12 = icmp eq ptr %0, null
  br i1 %12, label %55, label %13

13:                                               ; preds = %6
  %14 = getelementptr inbounds nuw i8, ptr %0, i64 248
  %15 = load ptr, ptr %14, align 8, !tbaa !18
  %16 = icmp eq ptr %15, null
  br i1 %16, label %55, label %17

17:                                               ; preds = %13
  %18 = icmp ule ptr %2, %3
  %19 = ptrtoint ptr %3 to i64
  %20 = ptrtoint ptr %2 to i64
  %21 = sub i64 %19, %20
  %22 = icmp ugt i64 %21, 33
  %narrow.i.not = and i1 %18, %22
  br i1 %narrow.i.not, label %23, label %55

23:                                               ; preds = %17
  %24 = tail call fastcc i32 @ssl_ticket_update_keys(ptr noundef %0)
  %.not42 = icmp eq i32 %24, 0
  br i1 %.not42, label %25, label %55

25:                                               ; preds = %23
  %26 = getelementptr inbounds nuw i8, ptr %0, i64 240
  %27 = load i8, ptr %26, align 8, !tbaa !3
  %28 = zext i8 %27 to i64
  %29 = getelementptr inbounds nuw [2 x %struct.mbedtls_ssl_ticket_key], ptr %0, i64 0, i64 %28
  %30 = getelementptr inbounds nuw i8, ptr %29, i64 16
  %31 = load i32, ptr %30, align 8, !tbaa !17
  store i32 %31, ptr %5, align 4, !tbaa !21
  %32 = load i32, ptr %29, align 8
  store i32 %32, ptr %2, align 1
  %33 = load ptr, ptr %14, align 8, !tbaa !18
  %34 = getelementptr inbounds nuw i8, ptr %0, i64 256
  %35 = load ptr, ptr %34, align 8, !tbaa !19
  %36 = tail call i32 %33(ptr noundef %35, ptr noundef nonnull %9, i64 noundef 12) #8
  %.not43 = icmp eq i32 %36, 0
  br i1 %.not43, label %37, label %55

37:                                               ; preds = %25
  %38 = ptrtoint ptr %11 to i64
  %39 = sub i64 %19, %38
  %40 = call i32 @mbedtls_ssl_session_save(ptr noundef %1, ptr noundef nonnull %11, i64 noundef %39, ptr noundef nonnull %7) #8
  %41 = icmp ne i32 %40, 0
  %42 = load i64, ptr %7, align 8
  %43 = icmp ugt i64 %42, 65535
  %or.cond = select i1 %41, i1 true, i1 %43
  br i1 %or.cond, label %55, label %44

44:                                               ; preds = %37
  %45 = trunc nuw i64 %42 to i16
  %46 = call i16 @llvm.bswap.i16(i16 %45)
  store i16 %46, ptr %10, align 1
  %47 = getelementptr inbounds nuw i8, ptr %29, i64 24
  %48 = call i32 @mbedtls_cipher_auth_encrypt_ext(ptr noundef nonnull %47, ptr noundef nonnull %9, i64 noundef 12, ptr noundef nonnull %2, i64 noundef 18, ptr noundef nonnull %11, i64 noundef %42, ptr noundef nonnull %11, i64 noundef %39, ptr noundef nonnull %8, i64 noundef 16) #8
  %.not44 = icmp eq i32 %48, 0
  br i1 %.not44, label %49, label %55

49:                                               ; preds = %44
  %50 = load i64, ptr %8, align 8, !tbaa !20
  %51 = load i64, ptr %7, align 8, !tbaa !20
  %52 = add i64 %51, 16
  %.not45 = icmp eq i64 %50, %52
  br i1 %.not45, label %53, label %55

53:                                               ; preds = %49
  %54 = add i64 %50, 18
  store i64 %54, ptr %4, align 8, !tbaa !20
  br label %55

55:                                               ; preds = %53, %23, %25, %37, %44, %49, %17, %6, %13
  %.0 = phi i32 [ -28928, %13 ], [ -28928, %6 ], [ -27136, %17 ], [ %24, %23 ], [ %36, %25 ], [ %40, %37 ], [ %48, %44 ], [ 0, %53 ], [ -27648, %49 ]
  call void @llvm.lifetime.end.p0(i64 8, ptr nonnull %8) #8
  call void @llvm.lifetime.end.p0(i64 8, ptr nonnull %7) #8
  ret i32 %.0
}